; Function Attrs: mustprogress nofree norecurse nosync nounwind willreturn memory(argmem: readwrite) uwtable
define dso_local void @_ZN5clang15OMPDependClause11setModifierEPNS_4ExprE(ptr noundef nonnull align 8 captures(none) dereferenceable(40) %0, ptr noundef %1) local_unnamed_addr #6 align 2 {
  %3 = getelementptr inbounds nuw i8, ptr %0, i64 40
  %4 = getelementptr inbounds nuw i8, ptr %0, i64 16
  %5 = load i32, ptr %4, align 8
  %6 = zext i32 %5 to i64
  %7 = getelementptr inbounds nuw ptr, ptr %3, i64 %6
  store ptr %1, ptr %7, align 8
  ret void
}